; Function Attrs: mustprogress nounwind uwtable
define hidden void @_ZN14MacroAssembler5mov32E8Register14AddressLiteral(ptr noundef nonnull align 8 dereferenceable(40) %0, i32 %1, ptr noundef %2) local_unnamed_addr #0 align 2 {
  %4 = alloca %class.AddressLiteral, align 8
  %5 = alloca %class.Address, align 8
  %6 = alloca %class.AddressLiteral, align 8
  %7 = alloca %class.AddressLiteral, align 8
  %8 = alloca %class.Address, align 8
  %9 = load ptr, ptr %2, align 8
  %10 = getelementptr inbounds i8, ptr %9, i64 16
  %11 = load ptr, ptr %10, align 8
  call void %11(ptr noundef nonnull align 8 dereferenceable(20) %2, ptr noundef nonnull align 8 dereferenceable(40) %4) #18
  %12 = getelementptr inbounds i8, ptr %4, i64 40
  %13 = getelementptr inbounds i8, ptr %2, i64 40
  call void @llvm.memcpy.p0.p0.i64(ptr noundef nonnull align 8 dereferenceable(16) %12, ptr noundef nonnull align 8 dereferenceable(16) %13, i64 16, i1 false)
  %14 = call noundef zeroext i1 @_ZN9Assembler9reachableE14AddressLiteral(ptr noundef nonnull align 8 dereferenceable(40) %0, ptr noundef nonnull %4) #18
  %15 = load ptr, ptr %2, align 8
  %16 = getelementptr inbounds i8, ptr %15, i64 16
  %17 = load ptr, ptr %16, align 8
  br i1 %14, label %18, label %32

18:                                               ; preds = %3
  call void %17(ptr noundef nonnull align 8 dereferenceable(20) %2, ptr noundef nonnull align 8 dereferenceable(40) %6) #18
  %19 = getelementptr inbounds i8, ptr %6, i64 40
  call void @llvm.memcpy.p0.p0.i64(ptr noundef nonnull align 8 dereferenceable(16) %19, ptr noundef nonnull align 8 dereferenceable(16) %13, i64 16, i1 false)
  %20 = getelementptr inbounds i8, ptr %6, i64 48
  %21 = load ptr, ptr %20, align 8, !noalias !172
  %22 = getelementptr inbounds i8, ptr %0, i64 8
  %23 = load ptr, ptr %22, align 8, !noalias !172
  %24 = getelementptr inbounds i8, ptr %23, i64 16
  %25 = load ptr, ptr %24, align 8, !noalias !172
  %26 = ptrtoint ptr %21 to i64
  %27 = ptrtoint ptr %25 to i64
  %28 = sub i64 %26, %27
  %29 = trunc i64 %28 to i32
  %30 = getelementptr inbounds i8, ptr %6, i64 16
  %31 = load i32, ptr %30, align 8, !noalias !172
  call void @_ZN7AddressC1EiPhN9relocInfo9relocTypeE(ptr noundef nonnull align 8 dereferenceable(64) %5, i32 noundef %29, ptr noundef %21, i32 noundef %31) #18
  br label %42

32:                                               ; preds = %3
  call void %17(ptr noundef nonnull align 8 dereferenceable(20) %2, ptr noundef nonnull align 8 dereferenceable(40) %7) #18
  %33 = getelementptr inbounds i8, ptr %7, i64 40
  call void @llvm.memcpy.p0.p0.i64(ptr noundef nonnull align 8 dereferenceable(16) %33, ptr noundef nonnull align 8 dereferenceable(16) %13, i64 16, i1 false)
  %34 = getelementptr inbounds i8, ptr %7, i64 48
  %35 = load ptr, ptr %34, align 8
  %36 = ptrtoint ptr %35 to i64
  call void @_ZN9Assembler13mov_literal64E8RegisterlRK16RelocationHolder(ptr noundef nonnull align 8 dereferenceable(40) %0, i32 %1, i64 noundef %36, ptr noundef nonnull align 8 dereferenceable(40) %7) #18
  store i32 %1, ptr %8, align 8
  %37 = getelementptr inbounds i8, ptr %8, i64 4
  store <4 x i32> <i32 -1, i32 -1, i32 -1, i32 0>, ptr %37, align 4
  %38 = getelementptr inbounds i8, ptr %8, i64 20
  store i8 0, ptr %38, align 4
  %39 = getelementptr inbounds i8, ptr %8, i64 24
  store ptr getelementptr inbounds inrange(-16, 72) (i8, ptr @_ZTV10Relocation, i64 16), ptr %39, align 8
  %40 = getelementptr inbounds i8, ptr %8, i64 32
  store ptr null, ptr %40, align 8
  %41 = getelementptr inbounds i8, ptr %8, i64 40
  store i32 0, ptr %41, align 8
  br label %42

42:                                               ; preds = %32, %18
  %.sink = phi ptr [ %8, %32 ], [ %5, %18 ]
  call void @_ZN9Assembler4movlE8Register7Address(ptr noundef nonnull align 8 dereferenceable(40) %0, i32 %1, ptr noundef nonnull %.sink) #18
  ret void
}